target datalayout = "e-m:e-p270:32:32-p271:32:32-p272:64:64-i64:64-i128:128-f80:128-n8:16:32:64-S128"
target triple = "x86_64-pc-linux-gnu"

%struct.QemuMutex = type { %union.pthread_mutex_t, i8 }
%union.pthread_mutex_t = type { %struct.__pthread_mutex_s }
%struct.__pthread_mutex_s = type { i32, i32, i32, i32, i32, i16, i16, %struct.__pthread_internal_list }
%struct.__pthread_internal_list = type { ptr, ptr }
%struct.JobTxn = type { i8, %struct.anon, i32 }
%struct.anon = type { ptr }
%struct.Job = type { ptr, ptr, ptr, i8, i8, ptr, ptr, %struct.ProgressMeter, ptr, i32, i32, %struct.QEMUTimer, i32, i8, i8, i8, i8, i8, i8, i32, ptr, %struct.NotifierList, %struct.NotifierList, %struct.NotifierList, %struct.NotifierList, %struct.NotifierList, %struct.anon.1, ptr, %struct.anon.2 }
%struct.ProgressMeter = type { i64, i64, %struct.QemuMutex }
%struct.QEMUTimer = type { i64, ptr, ptr, ptr, ptr, i32, i32 }
%struct.NotifierList = type { %struct.anon.0 }
%struct.anon.0 = type { ptr }
%struct.anon.1 = type { ptr, ptr }
%struct.anon.2 = type { ptr, ptr }

@.str = private unnamed_addr constant [14 x i8] c"../qemu/job.c\00", align 1
@.str.19 = private unnamed_addr constant [4 x i8] c"job\00", align 1
@.str.21 = private unnamed_addr constant [8 x i8] c"job->id\00", align 1
@__PRETTY_FUNCTION__.job_dismiss_locked = private unnamed_addr constant [42 x i8] c"void job_dismiss_locked(Job **, Error **)\00", align 1
@__PRETTY_FUNCTION__.job_do_dismiss_locked = private unnamed_addr constant [34 x i8] c"void job_do_dismiss_locked(Job *)\00", align 1

; Function Attrs: nounwind sspstrong uwtable
define dso_local void @job_txn_unref_locked(ptr noundef %0) #0 {
  %2 = alloca ptr, align 8
  store ptr %0, ptr %2, align 8
  %3 = load ptr, ptr %2, align 8
  %4 = icmp ne ptr %3, null
  br i1 %4, label %5, label %13

5:                                                ; preds = %1
  %6 = load ptr, ptr %2, align 8
  %7 = getelementptr inbounds nuw %struct.JobTxn, ptr %6, i32 0, i32 2
  %8 = load i32, ptr %7, align 8
  %9 = add i32 %8, -1
  store i32 %9, ptr %7, align 8
  %10 = icmp eq i32 %9, 0
  br i1 %10, label %11, label %13

11:                                               ; preds = %5
  %12 = load ptr, ptr %2, align 8
  call void @g_free(ptr noundef %12)
  br label %13

13:                                               ; preds = %11, %5, %1
  ret void
}

; Function Attrs: nounwind sspstrong uwtable
define internal void @job_txn_del_job_locked(ptr noundef %0) #0 {
  %2 = alloca ptr, align 8
  store ptr %0, ptr %2, align 8
  %3 = load ptr, ptr %2, align 8
  %4 = getelementptr inbounds nuw %struct.Job, ptr %3, i32 0, i32 27
  %5 = load ptr, ptr %4, align 8
  %6 = icmp ne ptr %5, null
  br i1 %6, label %7, label %46

7:                                                ; preds = %1
  br label %8

8:                                                ; preds = %7
  %9 = load ptr, ptr %2, align 8
  %10 = getelementptr inbounds nuw %struct.Job, ptr %9, i32 0, i32 28
  %11 = getelementptr inbounds nuw %struct.anon.2, ptr %10, i32 0, i32 0
  %12 = load ptr, ptr %11, align 8
  %13 = icmp ne ptr %12, null
  br i1 %13, label %14, label %25

14:                                               ; preds = %8
  %15 = load ptr, ptr %2, align 8
  %16 = getelementptr inbounds nuw %struct.Job, ptr %15, i32 0, i32 28
  %17 = getelementptr inbounds nuw %struct.anon.2, ptr %16, i32 0, i32 1
  %18 = load ptr, ptr %17, align 8
  %19 = load ptr, ptr %2, align 8
  %20 = getelementptr inbounds nuw %struct.Job, ptr %19, i32 0, i32 28
  %21 = getelementptr inbounds nuw %struct.anon.2, ptr %20, i32 0, i32 0
  %22 = load ptr, ptr %21, align 8
  %23 = getelementptr inbounds nuw %struct.Job, ptr %22, i32 0, i32 28
  %24 = getelementptr inbounds nuw %struct.anon.2, ptr %23, i32 0, i32 1
  store ptr %18, ptr %24, align 8
  br label %25

25:                                               ; preds = %14, %8
  %26 = load ptr, ptr %2, align 8
  %27 = getelementptr inbounds nuw %struct.Job, ptr %26, i32 0, i32 28
  %28 = getelementptr inbounds nuw %struct.anon.2, ptr %27, i32 0, i32 0
  %29 = load ptr, ptr %28, align 8
  %30 = load ptr, ptr %2, align 8
  %31 = getelementptr inbounds nuw %struct.Job, ptr %30, i32 0, i32 28
  %32 = getelementptr inbounds nuw %struct.anon.2, ptr %31, i32 0, i32 1
  %33 = load ptr, ptr %32, align 8
  store ptr %29, ptr %33, align 8
  %34 = load ptr, ptr %2, align 8
  %35 = getelementptr inbounds nuw %struct.Job, ptr %34, i32 0, i32 28
  %36 = getelementptr inbounds nuw %struct.anon.2, ptr %35, i32 0, i32 0
  store ptr null, ptr %36, align 8
  %37 = load ptr, ptr %2, align 8
  %38 = getelementptr inbounds nuw %struct.Job, ptr %37, i32 0, i32 28
  %39 = getelementptr inbounds nuw %struct.anon.2, ptr %38, i32 0, i32 1
  store ptr null, ptr %39, align 8
  br label %40

40:                                               ; preds = %25
  %41 = load ptr, ptr %2, align 8
  %42 = getelementptr inbounds nuw %struct.Job, ptr %41, i32 0, i32 27
  %43 = load ptr, ptr %42, align 8
  call void @job_txn_unref_locked(ptr noundef %43)
  %44 = load ptr, ptr %2, align 8
  %45 = getelementptr inbounds nuw %struct.Job, ptr %44, i32 0, i32 27
  store ptr null, ptr %45, align 8
  br label %46

46:                                               ; preds = %40, %1
  ret void
}

; Function Attrs: nounwind sspstrong uwtable
define internal void @job_do_dismiss_locked(ptr noundef %0) #0 {
  %2 = alloca ptr, align 8
  store ptr %0, ptr %2, align 8
  %3 = load ptr, ptr %2, align 8
  %4 = icmp ne ptr %3, null
  br i1 %4, label %5, label %6

5:                                                ; preds = %1
  br label %7

6:                                                ; preds = %1
  call void @__assert_fail(ptr noundef @.str.19, ptr noundef @.str, i32 noundef 757, ptr noundef @__PRETTY_FUNCTION__.job_do_dismiss_locked) #20
  unreachable

7:                                                ; preds = %5
  %8 = load ptr, ptr %2, align 8
  %9 = getelementptr inbounds nuw %struct.Job, ptr %8, i32 0, i32 13
  store i8 0, ptr %9, align 4
  %10 = load ptr, ptr %2, align 8
  %11 = getelementptr inbounds nuw %struct.Job, ptr %10, i32 0, i32 14
  store i8 0, ptr %11, align 1
  %12 = load ptr, ptr %2, align 8
  %13 = getelementptr inbounds nuw %struct.Job, ptr %12, i32 0, i32 18
  store i8 1, ptr %13, align 1
  %14 = load ptr, ptr %2, align 8
  call void @job_txn_del_job_locked(ptr noundef %14)
  %15 = load ptr, ptr %2, align 8
  call void @job_state_transition_locked(ptr noundef %15, i32 noundef 10)
  %16 = load ptr, ptr %2, align 8
  call void @job_unref_locked(ptr noundef %16)
  ret void
}

; Function Attrs: nounwind sspstrong uwtable
define dso_local void @job_dismiss_locked(ptr noundef %0, ptr noundef %1) #0 {
  %3 = alloca ptr, align 8
  %4 = alloca ptr, align 8
  %5 = alloca ptr, align 8
  %6 = alloca i32, align 4
  store ptr %0, ptr %3, align 8
  store ptr %1, ptr %4, align 8
  call void @llvm.lifetime.start.p0(i64 8, ptr %5) #16
  %7 = load ptr, ptr %3, align 8
  %8 = load ptr, ptr %7, align 8
  store ptr %8, ptr %5, align 8
  %9 = load ptr, ptr %5, align 8
  %10 = getelementptr inbounds nuw %struct.Job, ptr %9, i32 0, i32 0
  %11 = load ptr, ptr %10, align 8
  %12 = icmp ne ptr %11, null
  br i1 %12, label %13, label %14

13:                                               ; preds = %2
  br label %15

14:                                               ; preds = %2
  call void @__assert_fail(ptr noundef @.str.21, ptr noundef @.str, i32 noundef 772, ptr noundef @__PRETTY_FUNCTION__.job_dismiss_locked) #20
  unreachable

15:                                               ; preds = %13
  %16 = load ptr, ptr %5, align 8
  %17 = load ptr, ptr %4, align 8
  %18 = call i32 @job_apply_verb_locked(ptr noundef %16, i32 noundef 5, ptr noundef %17)
  %19 = icmp ne i32 %18, 0
  br i1 %19, label %20, label %21

20:                                               ; preds = %15
  store i32 1, ptr %6, align 4
  br label %24

21:                                               ; preds = %15
  %22 = load ptr, ptr %5, align 8
  call void @job_do_dismiss_locked(ptr noundef %22)
  %23 = load ptr, ptr %3, align 8
  store ptr null, ptr %23, align 8
  store i32 0, ptr %6, align 4
  br label %24

24:                                               ; preds = %21, %20
  call void @llvm.lifetime.end.p0(i64 8, ptr %5) #16
  %25 = load i32, ptr %6, align 4
  switch i32 %25, label %27 [
    i32 0, label %26
    i32 1, label %26
  ]

26:                                               ; preds = %24, %24
  ret void

27:                                               ; preds = %24
  unreachable
}