; Function Attrs: nounwind sspstrong uwtable
define dso_local void @job_dismiss_locked(ptr noundef captures(none) %0, ptr noundef %1) local_unnamed_addr #0 {
  %3 = load ptr, ptr %0, align 8
  %4 = load ptr, ptr %3, align 8
  %.not = icmp eq ptr %4, null
  br i1 %.not, label %5, label %6

5:                                                ; preds = %2
  tail call void @__assert_fail(ptr noundef nonnull @.str.21, ptr noundef nonnull @.str, i32 noundef 772, ptr noundef nonnull @__PRETTY_FUNCTION__.job_dismiss_locked) #17
  unreachable

6:                                                ; preds = %2
  %7 = tail call i32 @job_apply_verb_locked(ptr noundef nonnull %3, i32 noundef 5, ptr noundef %1)
  %.not6 = icmp eq i32 %7, 0
  br i1 %.not6, label %8, label %27

8:                                                ; preds = %6
  %9 = getelementptr inbounds nuw i8, ptr %3, i64 180
  store i8 0, ptr %9, align 4
  %10 = getelementptr inbounds nuw i8, ptr %3, i64 181
  store i8 0, ptr %10, align 1
  %11 = getelementptr inbounds nuw i8, ptr %3, i64 185
  store i8 1, ptr %11, align 1
  %12 = getelementptr inbounds nuw i8, ptr %3, i64 256
  %13 = load ptr, ptr %12, align 8
  %.not.i.i = icmp eq ptr %13, null
  br i1 %.not.i.i, label %job_do_dismiss_locked.exit, label %14

14:                                               ; preds = %8
  %15 = getelementptr inbounds nuw i8, ptr %3, i64 264
  %16 = load ptr, ptr %15, align 8
  %.not10.i.i = icmp eq ptr %16, null
  %.phi.trans.insert.i.i = getelementptr inbounds nuw i8, ptr %3, i64 272
  %.pre11.i.i = load ptr, ptr %.phi.trans.insert.i.i, align 8
  br i1 %.not10.i.i, label %._crit_edge.i.i, label %17

17:                                               ; preds = %14
  %18 = getelementptr inbounds nuw i8, ptr %16, i64 272
  store ptr %.pre11.i.i, ptr %18, align 8
  %.pre.i.i = load ptr, ptr %15, align 8
  br label %._crit_edge.i.i

._crit_edge.i.i:                                  ; preds = %17, %14
  %19 = phi ptr [ %.pre.i.i, %17 ], [ null, %14 ]
  store ptr %19, ptr %.pre11.i.i, align 8
  tail call void @llvm.memset.p0.i64(ptr noundef nonnull align 8 dereferenceable(16) %15, i8 0, i64 16, i1 false)
  %20 = load ptr, ptr %12, align 8
  %.not.i.i.i = icmp eq ptr %20, null
  br i1 %.not.i.i.i, label %job_txn_unref_locked.exit.i.i, label %21

21:                                               ; preds = %._crit_edge.i.i
  %22 = getelementptr inbounds nuw i8, ptr %20, i64 16
  %23 = load i32, ptr %22, align 8
  %24 = add i32 %23, -1
  store i32 %24, ptr %22, align 8
  %25 = icmp eq i32 %24, 0
  br i1 %25, label %26, label %job_txn_unref_locked.exit.i.i

26:                                               ; preds = %21
  tail call void @g_free(ptr noundef nonnull %20) #15
  br label %job_txn_unref_locked.exit.i.i

job_txn_unref_locked.exit.i.i:                    ; preds = %26, %21, %._crit_edge.i.i
  store ptr null, ptr %12, align 8
  br label %job_do_dismiss_locked.exit

job_do_dismiss_locked.exit:                       ; preds = %8, %job_txn_unref_locked.exit.i.i
  tail call fastcc void @job_state_transition_locked(ptr noundef nonnull %3, i32 noundef 10)
  tail call void @job_unref_locked(ptr noundef nonnull %3)
  store ptr null, ptr %0, align 8
  br label %27

27:                                               ; preds = %6, %job_do_dismiss_locked.exit
  ret void
}